target datalayout = "e-m:e-p270:32:32-p271:32:32-p272:64:64-i64:64-i128:128-f80:128-n8:16:32:64-S128"
target triple = "x86_64-pc-linux-gnu"

%union.SourceSpan = type { i64 }
%struct.Int = type { %struct.Int128_, i32 }
%struct.Int128_ = type { i64, i64 }
%struct.SemaContext_ = type { ptr, ptr, ptr, %struct.CallEnv, ptr, %union.SourceSpan, i32, i32, ptr, i32, ptr, i32, i32, ptr, ptr, i32, %struct.anon.85, ptr, ptr, ptr, %struct.DynamicScope_, ptr }
%struct.CallEnv = type { i16, ptr, %union.anon.54 }
%union.anon.54 = type { ptr }
%struct.anon.85 = type { i32, ptr, ptr, ptr, ptr, ptr, ptr, ptr, ptr, ptr, i8, ptr }
%struct.DynamicScope_ = type { i32, i8, i32, i32, i32, i32, i32, ptr, i32 }
%struct.VHeader_ = type { i32, i32, [0 x i8] }
%struct.Expr_ = type { ptr, %union.SourceSpan, i16, %union.anon.61 }
%union.anon.61 = type { %struct.ExprAnySwitch }
%struct.ExprAnySwitch = type { i8, %union.anon.63 }
%union.anon.63 = type { %struct.anon.64 }
%struct.anon.64 = type { ptr, %union.SourceSpan, ptr }
%struct.Type_ = type { i32, ptr, ptr, ptr, %union.anon.86, ptr, ptr, %union.anon.88 }
%union.anon.86 = type { ptr }
%union.anon.88 = type { %struct.TypeFunction }
%struct.TypeFunction = type { ptr, ptr, ptr }
%struct.ExprConst = type { i16, %union.anon.70 }
%union.anon.70 = type { %struct.Int }

@poisoned_expr = external global ptr, align 8
@.str.1 = private unnamed_addr constant [64 x i8] c"Expected the argument index here, but found a value of type %s.\00", align 1
@.str.2 = private unnamed_addr constant [72 x i8] c"Vararg functions need a constant argument, but this is a runtime value.\00", align 1
@.str.3 = private unnamed_addr constant [30 x i8] c"The index cannot be negative.\00", align 1
@.str.4 = private unnamed_addr constant [24 x i8] c"Only %u vararg%s exist.\00", align 1
@.str.5 = private unnamed_addr constant [1 x i8] zeroinitializer, align 1
@.str.6 = private unnamed_addr constant [2 x i8] c"s\00", align 1
@.str.33 = private unnamed_addr constant [36 x i8] c"FATAL ERROR %s -> in %s @ in %s:%d \00", align 1
@.str.34 = private unnamed_addr constant [22 x i8] c"Should be unreachable\00", align 1
@.str.35 = private unnamed_addr constant [110 x i8] c"generated/home/dtcxzyw/WorkSpace/Projects/compilers/llvm-opt-benchmark/bench/c3c/c3c/src/compiler/sema_expr.c\00", align 1
@.str.37 = private unnamed_addr constant [35 x i8] c"Recursive resolution of expression\00", align 1
@__func__.sema_analyse_expr_lvalue = private unnamed_addr constant [25 x i8] c"sema_analyse_expr_lvalue\00", align 1

; Function Attrs: nounwind uwtable
define dso_local zeroext i1 @sema_analyse_expr_lvalue(ptr noundef %0, ptr noundef %1) #0 {
  %3 = alloca ptr, align 8
  %4 = alloca ptr, align 8
  %5 = alloca ptr, align 8
  %6 = alloca i1, align 1
  %7 = alloca ptr, align 8
  %8 = alloca ptr, align 8
  store ptr %0, ptr %7, align 8
  store ptr %1, ptr %8, align 8
  %9 = load ptr, ptr %8, align 8
  %10 = getelementptr inbounds %struct.Expr_, ptr %9, i32 0, i32 2
  %11 = load i16, ptr %10, align 8
  %12 = lshr i16 %11, 8
  %13 = and i16 %12, 15
  %14 = zext i16 %13 to i32
  switch i32 %14, label %69 [
    i32 0, label %15
    i32 1, label %41
    i32 2, label %56
  ]

15:                                               ; preds = %2
  %16 = load ptr, ptr %8, align 8
  %17 = getelementptr inbounds %struct.Expr_, ptr %16, i32 0, i32 2
  %18 = load i16, ptr %17, align 8
  %19 = and i16 %18, -3841
  %20 = or i16 %19, 256
  store i16 %20, ptr %17, align 8
  %21 = load ptr, ptr %7, align 8
  %22 = load ptr, ptr %8, align 8
  %23 = call zeroext i1 @sema_analyse_expr_dispatch(ptr noundef %21, ptr noundef %22)
  br i1 %23, label %35, label %24

24:                                               ; preds = %15
  %25 = load ptr, ptr %8, align 8
  store ptr %25, ptr %4, align 8
  %26 = load ptr, ptr %4, align 8
  %27 = getelementptr inbounds %struct.Expr_, ptr %26, i32 0, i32 2
  %28 = load i16, ptr %27, align 8
  %29 = and i16 %28, -256
  store i16 %29, ptr %27, align 8
  %30 = load ptr, ptr %4, align 8
  %31 = getelementptr inbounds %struct.Expr_, ptr %30, i32 0, i32 2
  %32 = load i16, ptr %31, align 8
  %33 = and i16 %32, -3841
  %34 = or i16 %33, 512
  store i16 %34, ptr %31, align 8
  store i1 false, ptr %6, align 1
  br label %72

35:                                               ; preds = %15
  %36 = load ptr, ptr %8, align 8
  %37 = getelementptr inbounds %struct.Expr_, ptr %36, i32 0, i32 2
  %38 = load i16, ptr %37, align 8
  %39 = and i16 %38, -3841
  %40 = or i16 %39, 512
  store i16 %40, ptr %37, align 8
  store i1 true, ptr %6, align 1
  br label %72

41:                                               ; preds = %2
  %42 = load ptr, ptr %8, align 8
  %43 = getelementptr inbounds %struct.Expr_, ptr %42, i32 0, i32 1
  %44 = getelementptr inbounds %union.SourceSpan, ptr %43, i32 0, i32 0
  %45 = load i64, ptr %44, align 8
  call void (i64, ptr, ...) @sema_error_at(i64 %45, ptr noundef @.str.37)
  %46 = load ptr, ptr %8, align 8
  store ptr %46, ptr %5, align 8
  %47 = load ptr, ptr %5, align 8
  %48 = getelementptr inbounds %struct.Expr_, ptr %47, i32 0, i32 2
  %49 = load i16, ptr %48, align 8
  %50 = and i16 %49, -256
  store i16 %50, ptr %48, align 8
  %51 = load ptr, ptr %5, align 8
  %52 = getelementptr inbounds %struct.Expr_, ptr %51, i32 0, i32 2
  %53 = load i16, ptr %52, align 8
  %54 = and i16 %53, -3841
  %55 = or i16 %54, 512
  store i16 %55, ptr %52, align 8
  store i1 false, ptr %6, align 1
  br label %72

56:                                               ; preds = %2
  %57 = load ptr, ptr %8, align 8
  store ptr %57, ptr %3, align 8
  %58 = load ptr, ptr %3, align 8
  %59 = icmp eq ptr %58, null
  br i1 %59, label %67, label %60

60:                                               ; preds = %56
  %61 = load ptr, ptr %3, align 8
  %62 = getelementptr inbounds %struct.Expr_, ptr %61, i32 0, i32 2
  %63 = load i16, ptr %62, align 8
  %64 = and i16 %63, 255
  %65 = zext i16 %64 to i32
  %66 = icmp ne i32 %65, 0
  br label %67

67:                                               ; preds = %60, %56
  %68 = phi i1 [ true, %56 ], [ %66, %60 ]
  store i1 %68, ptr %6, align 1
  br label %72

69:                                               ; preds = %2
  br label %70

70:                                               ; preds = %69
  call void (ptr, ...) @error_exit(ptr noundef @.str.33, ptr noundef @.str.34, ptr noundef @__func__.sema_analyse_expr_lvalue, ptr noundef @.str.35, i32 noundef 8634) #6
  unreachable

71:                                               ; No predecessors!
  br label %72

72:                                               ; preds = %71, %67, %41, %35, %24
  %73 = load i1, ptr %6, align 1
  ret i1 %73
}

; Function Attrs: nounwind uwtable
define dso_local zeroext i1 @sema_analyse_expr(ptr noundef %0, ptr noundef %1) #0 {
  %3 = alloca ptr, align 8
  %4 = alloca ptr, align 8
  store ptr %0, ptr %3, align 8
  store ptr %1, ptr %4, align 8
  %5 = load ptr, ptr %3, align 8
  %6 = load ptr, ptr %4, align 8
  %7 = call zeroext i1 @sema_analyse_expr_lvalue(ptr noundef %5, ptr noundef %6)
  br i1 %7, label %8, label %12

8:                                                ; preds = %2
  %9 = load ptr, ptr %3, align 8
  %10 = load ptr, ptr %4, align 8
  %11 = call zeroext i1 @sema_cast_rvalue(ptr noundef %9, ptr noundef %10)
  br label %12

12:                                               ; preds = %8, %2
  %13 = phi i1 [ false, %2 ], [ %11, %8 ]
  ret i1 %13
}

; Function Attrs: nounwind uwtable
define dso_local ptr @sema_expr_analyse_ct_arg_index(ptr noundef %0, ptr noundef %1, ptr noundef %2, i1 noundef zeroext %3) #0 {
  %5 = alloca ptr, align 8
  %6 = alloca ptr, align 8
  %7 = alloca i32, align 4
  %8 = alloca i32, align 4
  %9 = alloca ptr, align 8
  %10 = alloca ptr, align 8
  %11 = alloca ptr, align 8
  %12 = alloca ptr, align 8
  %13 = alloca ptr, align 8
  %14 = alloca ptr, align 8
  %15 = alloca i8, align 1
  %16 = alloca i32, align 4
  %17 = alloca ptr, align 8
  %18 = alloca %struct.Int, align 8
  %19 = alloca %struct.Int, align 8
  store ptr %0, ptr %12, align 8
  store ptr %1, ptr %13, align 8
  store ptr %2, ptr %14, align 8
  %20 = zext i1 %3 to i8
  store i8 %20, ptr %15, align 1
  %21 = load ptr, ptr %12, align 8
  %22 = getelementptr inbounds %struct.SemaContext_, ptr %21, i32 0, i32 16
  %23 = getelementptr inbounds %struct.anon.85, ptr %22, i32 0, i32 8
  %24 = load ptr, ptr %23, align 8
  store ptr %24, ptr %9, align 8
  %25 = load ptr, ptr %9, align 8
  %26 = icmp ne ptr %25, null
  br i1 %26, label %28, label %27

27:                                               ; preds = %4
  store i32 0, ptr %8, align 4
  br label %33

28:                                               ; preds = %4
  %29 = load ptr, ptr %9, align 8
  store ptr %29, ptr %10, align 8
  %30 = load ptr, ptr %10, align 8
  %31 = getelementptr inbounds %struct.VHeader_, ptr %30, i64 -1
  %32 = load i32, ptr %31, align 4
  store i32 %32, ptr %8, align 4
  br label %33

33:                                               ; preds = %28, %27
  %34 = load i32, ptr %8, align 4
  store i32 %34, ptr %16, align 4
  store ptr null, ptr %17, align 8
  %35 = load ptr, ptr %12, align 8
  %36 = load ptr, ptr %13, align 8
  %37 = call zeroext i1 @sema_analyse_expr(ptr noundef %35, ptr noundef %36)
  br i1 %37, label %40, label %38

38:                                               ; preds = %33
  %39 = load ptr, ptr @poisoned_expr, align 8
  store ptr %39, ptr %11, align 8
  br label %149

40:                                               ; preds = %33
  %41 = load ptr, ptr %13, align 8
  %42 = getelementptr inbounds %struct.Expr_, ptr %41, i32 0, i32 0
  %43 = load ptr, ptr %42, align 8
  store ptr %43, ptr %6, align 8
  %44 = load ptr, ptr %6, align 8
  %45 = load i32, ptr %44, align 8
  store i32 %45, ptr %7, align 4
  %46 = load i32, ptr %7, align 4
  %47 = icmp eq i32 %46, 31
  br i1 %47, label %48, label %53

48:                                               ; preds = %40
  %49 = load ptr, ptr %6, align 8
  %50 = getelementptr inbounds %struct.Type_, ptr %49, i32 0, i32 1
  %51 = load ptr, ptr %50, align 8
  %52 = load i32, ptr %51, align 8
  store i32 %52, ptr %7, align 4
  br label %53

53:                                               ; preds = %48, %40
  %54 = load i32, ptr %7, align 4
  %55 = icmp uge i32 %54, 3
  br i1 %55, label %56, label %59

56:                                               ; preds = %53
  %57 = load i32, ptr %7, align 4
  %58 = icmp ule i32 %57, 12
  br label %59

59:                                               ; preds = %56, %53
  %60 = phi i1 [ false, %53 ], [ %58, %56 ]
  br i1 %60, label %75, label %61

61:                                               ; preds = %59
  %62 = load i8, ptr %15, align 1
  %63 = trunc i8 %62 to i1
  br i1 %63, label %64, label %73

64:                                               ; preds = %61
  %65 = load ptr, ptr %13, align 8
  %66 = getelementptr inbounds %struct.Expr_, ptr %65, i32 0, i32 1
  %67 = load ptr, ptr %13, align 8
  %68 = getelementptr inbounds %struct.Expr_, ptr %67, i32 0, i32 0
  %69 = load ptr, ptr %68, align 8
  %70 = call ptr @type_quoted_error_string(ptr noundef %69)
  %71 = getelementptr inbounds %union.SourceSpan, ptr %66, i32 0, i32 0
  %72 = load i64, ptr %71, align 8
  call void (i64, ptr, ...) @sema_error_at(i64 %72, ptr noundef @.str.1, ptr noundef %70)
  br label %73

73:                                               ; preds = %64, %61
  %74 = load ptr, ptr @poisoned_expr, align 8
  store ptr %74, ptr %11, align 8
  br label %149

75:                                               ; preds = %59
  %76 = load ptr, ptr %13, align 8
  store ptr %76, ptr %5, align 8
  %77 = load ptr, ptr %5, align 8
  %78 = getelementptr inbounds %struct.Expr_, ptr %77, i32 0, i32 2
  %79 = load i16, ptr %78, align 8
  %80 = and i16 %79, 255
  %81 = zext i16 %80 to i32
  %82 = icmp eq i32 %81, 14
  br i1 %82, label %93, label %83

83:                                               ; preds = %75
  %84 = load i8, ptr %15, align 1
  %85 = trunc i8 %84 to i1
  br i1 %85, label %86, label %91

86:                                               ; preds = %83
  %87 = load ptr, ptr %13, align 8
  %88 = getelementptr inbounds %struct.Expr_, ptr %87, i32 0, i32 1
  %89 = getelementptr inbounds %union.SourceSpan, ptr %88, i32 0, i32 0
  %90 = load i64, ptr %89, align 8
  call void (i64, ptr, ...) @sema_error_at(i64 %90, ptr noundef @.str.2)
  br label %91

91:                                               ; preds = %86, %83
  %92 = load ptr, ptr @poisoned_expr, align 8
  store ptr %92, ptr %11, align 8
  br label %149

93:                                               ; preds = %75
  %94 = load ptr, ptr %13, align 8
  %95 = getelementptr inbounds %struct.Expr_, ptr %94, i32 0, i32 3
  %96 = getelementptr inbounds %struct.ExprConst, ptr %95, i32 0, i32 1
  call void @llvm.memcpy.p0.p0.i64(ptr align 8 %18, ptr align 8 %96, i64 24, i1 false)
  %97 = call zeroext i1 @int_is_neg(ptr noundef byval(%struct.Int) align 8 %18)
  br i1 %97, label %98, label %108

98:                                               ; preds = %93
  %99 = load i8, ptr %15, align 1
  %100 = trunc i8 %99 to i1
  br i1 %100, label %101, label %106

101:                                              ; preds = %98
  %102 = load ptr, ptr %13, align 8
  %103 = getelementptr inbounds %struct.Expr_, ptr %102, i32 0, i32 1
  %104 = getelementptr inbounds %union.SourceSpan, ptr %103, i32 0, i32 0
  %105 = load i64, ptr %104, align 8
  call void (i64, ptr, ...) @sema_error_at(i64 %105, ptr noundef @.str.3)
  br label %106

106:                                              ; preds = %101, %98
  %107 = load ptr, ptr @poisoned_expr, align 8
  store ptr %107, ptr %11, align 8
  br label %149

108:                                              ; preds = %93
  %109 = getelementptr inbounds %struct.Int, ptr %19, i32 0, i32 0
  %110 = getelementptr inbounds %struct.Int128_, ptr %109, i32 0, i32 0
  store i64 0, ptr %110, align 8
  %111 = getelementptr inbounds %struct.Int128_, ptr %109, i32 0, i32 1
  %112 = load i32, ptr %16, align 4
  %113 = zext i32 %112 to i64
  store i64 %113, ptr %111, align 8
  %114 = getelementptr inbounds %struct.Int, ptr %19, i32 0, i32 1
  store i32 10, ptr %114, align 8
  %115 = call zeroext i1 @int_comp(ptr noundef byval(%struct.Int) align 8 %18, ptr noundef byval(%struct.Int) align 8 %19, i32 noundef 15)
  br i1 %115, label %116, label %130

116:                                              ; preds = %108
  %117 = load i8, ptr %15, align 1
  %118 = trunc i8 %117 to i1
  br i1 %118, label %119, label %128

119:                                              ; preds = %116
  %120 = load ptr, ptr %13, align 8
  %121 = getelementptr inbounds %struct.Expr_, ptr %120, i32 0, i32 1
  %122 = load i32, ptr %16, align 4
  %123 = load i32, ptr %16, align 4
  %124 = icmp eq i32 %123, 1
  %125 = select i1 %124, ptr @.str.5, ptr @.str.6
  %126 = getelementptr inbounds %union.SourceSpan, ptr %121, i32 0, i32 0
  %127 = load i64, ptr %126, align 8
  call void (i64, ptr, ...) @sema_error_at(i64 %127, ptr noundef @.str.4, i32 noundef %122, ptr noundef %125)
  br label %128

128:                                              ; preds = %119, %116
  %129 = load ptr, ptr @poisoned_expr, align 8
  store ptr %129, ptr %11, align 8
  br label %149

130:                                              ; preds = %108
  %131 = load ptr, ptr %14, align 8
  %132 = icmp ne ptr %131, null
  br i1 %132, label %133, label %139

133:                                              ; preds = %130
  %134 = getelementptr inbounds %struct.Int, ptr %18, i32 0, i32 0
  %135 = getelementptr inbounds %struct.Int128_, ptr %134, i32 0, i32 1
  %136 = load i64, ptr %135, align 8
  %137 = trunc i64 %136 to i32
  %138 = load ptr, ptr %14, align 8
  store i32 %137, ptr %138, align 4
  br label %139

139:                                              ; preds = %133, %130
  %140 = load ptr, ptr %12, align 8
  %141 = getelementptr inbounds %struct.SemaContext_, ptr %140, i32 0, i32 16
  %142 = getelementptr inbounds %struct.anon.85, ptr %141, i32 0, i32 8
  %143 = load ptr, ptr %142, align 8
  %144 = getelementptr inbounds %struct.Int, ptr %18, i32 0, i32 0
  %145 = getelementptr inbounds %struct.Int128_, ptr %144, i32 0, i32 1
  %146 = load i64, ptr %145, align 8
  %147 = getelementptr inbounds ptr, ptr %143, i64 %146
  %148 = load ptr, ptr %147, align 8
  store ptr %148, ptr %11, align 8
  br label %149

149:                                              ; preds = %139, %128, %106, %91, %73, %38
  %150 = load ptr, ptr %11, align 8
  ret ptr %150
}