; Function Attrs: nounwind uwtable
define dso_local ptr @sema_expr_analyse_ct_arg_index(ptr noundef %0, ptr noundef %1, ptr noundef writeonly %2, i1 noundef zeroext %3) local_unnamed_addr #0 {
  %5 = alloca %struct.Int, align 8
  %6 = alloca %struct.Int, align 8
  %7 = getelementptr inbounds i8, ptr %0, i64 192
  %8 = load ptr, ptr %7, align 8
  %.not = icmp eq ptr %8, null
  br i1 %.not, label %12, label %9

9:                                                ; preds = %4
  %10 = getelementptr inbounds i8, ptr %8, i64 -8
  %11 = load i32, ptr %10, align 4
  br label %12

12:                                               ; preds = %4, %9
  %.031 = phi i32 [ %11, %9 ], [ 0, %4 ]
  %13 = getelementptr inbounds i8, ptr %1, i64 16
  %14 = load i16, ptr %13, align 8
  %15 = lshr i16 %14, 8
  %16 = and i16 %15, 15
  switch i16 %16, label %33 [
    i16 0, label %17
    i16 1, label %27
    i16 2, label %sema_analyse_expr_lvalue.exit
  ]

17:                                               ; preds = %12
  %18 = and i16 %14, -3841
  %19 = or disjoint i16 %18, 256
  store i16 %19, ptr %13, align 8
  %20 = tail call fastcc zeroext i1 @sema_analyse_expr_dispatch(ptr noundef nonnull %0, ptr noundef nonnull %1)
  %21 = load i16, ptr %13, align 8
  br i1 %20, label %sema_analyse_expr_lvalue.exit.thread38, label %22

22:                                               ; preds = %17
  %23 = and i16 %21, -4096
  %24 = or disjoint i16 %23, 512
  store i16 %24, ptr %13, align 8
  br label %sema_analyse_expr.exit.thread

sema_analyse_expr_lvalue.exit.thread38:           ; preds = %17
  %25 = and i16 %21, -3841
  %26 = or disjoint i16 %25, 512
  store i16 %26, ptr %13, align 8
  br label %sema_analyse_expr.exit

27:                                               ; preds = %12
  %28 = getelementptr inbounds i8, ptr %1, i64 8
  %29 = load i64, ptr %28, align 8
  tail call void (i64, ptr, ...) @sema_error_at(i64 %29, ptr noundef nonnull @.str.37) #13
  %30 = load i16, ptr %13, align 8
  %31 = and i16 %30, -4096
  %32 = or disjoint i16 %31, 512
  store i16 %32, ptr %13, align 8
  br label %sema_analyse_expr.exit.thread

33:                                               ; preds = %12
  tail call void (ptr, ...) @error_exit(ptr noundef nonnull @.str.33, ptr noundef nonnull @.str.34, ptr noundef nonnull @__func__.sema_analyse_expr_lvalue, ptr noundef nonnull @.str.35, i32 noundef 8634) #14
  unreachable

sema_analyse_expr_lvalue.exit:                    ; preds = %12
  %34 = and i16 %14, 255
  %.not40 = icmp eq i16 %34, 0
  br i1 %.not40, label %sema_analyse_expr.exit.thread, label %sema_analyse_expr.exit

sema_analyse_expr.exit:                           ; preds = %sema_analyse_expr_lvalue.exit.thread38, %sema_analyse_expr_lvalue.exit
  %35 = tail call fastcc zeroext i1 @sema_cast_rvalue(ptr noundef nonnull %0, ptr noundef nonnull %1)
  br i1 %35, label %36, label %sema_analyse_expr.exit.thread

36:                                               ; preds = %sema_analyse_expr.exit
  %37 = load ptr, ptr %1, align 8
  %38 = load i32, ptr %37, align 8
  %39 = icmp eq i32 %38, 31
  br i1 %39, label %40, label %44

40:                                               ; preds = %36
  %41 = getelementptr inbounds i8, ptr %37, i64 8
  %42 = load ptr, ptr %41, align 8
  %43 = load i32, ptr %42, align 8
  br label %44

44:                                               ; preds = %40, %36
  %.0 = phi i32 [ %43, %40 ], [ %38, %36 ]
  %45 = add i32 %.0, -3
  %46 = icmp ult i32 %45, 10
  br i1 %46, label %52, label %47

47:                                               ; preds = %44
  br i1 %3, label %48, label %sema_analyse_expr.exit.thread

48:                                               ; preds = %47
  %49 = getelementptr inbounds i8, ptr %1, i64 8
  %50 = tail call ptr @type_quoted_error_string(ptr noundef nonnull %37) #13
  %51 = load i64, ptr %49, align 8
  tail call void (i64, ptr, ...) @sema_error_at(i64 %51, ptr noundef nonnull @.str.1, ptr noundef %50) #13
  br label %sema_analyse_expr.exit.thread

52:                                               ; preds = %44
  %53 = load i16, ptr %13, align 8
  %54 = and i16 %53, 255
  %55 = icmp eq i16 %54, 14
  br i1 %55, label %60, label %56

56:                                               ; preds = %52
  br i1 %3, label %57, label %sema_analyse_expr.exit.thread

57:                                               ; preds = %56
  %58 = getelementptr inbounds i8, ptr %1, i64 8
  %59 = load i64, ptr %58, align 8
  tail call void (i64, ptr, ...) @sema_error_at(i64 %59, ptr noundef nonnull @.str.2) #13
  br label %sema_analyse_expr.exit.thread

60:                                               ; preds = %52
  %61 = getelementptr inbounds i8, ptr %1, i64 32
  call void @llvm.memcpy.p0.p0.i64(ptr noundef nonnull align 8 dereferenceable(24) %5, ptr noundef nonnull align 8 dereferenceable(24) %61, i64 24, i1 false)
  %62 = tail call zeroext i1 @int_is_neg(ptr noundef nonnull byval(%struct.Int) align 8 %61) #13
  br i1 %62, label %63, label %67

63:                                               ; preds = %60
  br i1 %3, label %64, label %sema_analyse_expr.exit.thread

64:                                               ; preds = %63
  %65 = getelementptr inbounds i8, ptr %1, i64 8
  %66 = load i64, ptr %65, align 8
  tail call void (i64, ptr, ...) @sema_error_at(i64 %66, ptr noundef nonnull @.str.3) #13
  br label %sema_analyse_expr.exit.thread

67:                                               ; preds = %60
  store i64 0, ptr %6, align 8
  %68 = getelementptr inbounds i8, ptr %6, i64 8
  %69 = zext i32 %.031 to i64
  store i64 %69, ptr %68, align 8
  %70 = getelementptr inbounds i8, ptr %6, i64 16
  store i32 10, ptr %70, align 8
  %71 = tail call zeroext i1 @int_comp(ptr noundef nonnull byval(%struct.Int) align 8 %5, ptr noundef nonnull byval(%struct.Int) align 8 %6, i32 noundef 15) #13
  br i1 %71, label %72, label %78

72:                                               ; preds = %67
  br i1 %3, label %73, label %sema_analyse_expr.exit.thread

73:                                               ; preds = %72
  %74 = getelementptr inbounds i8, ptr %1, i64 8
  %75 = icmp eq i32 %.031, 1
  %76 = select i1 %75, ptr @.str.5, ptr @.str.6
  %77 = load i64, ptr %74, align 8
  tail call void (i64, ptr, ...) @sema_error_at(i64 %77, ptr noundef nonnull @.str.4, i32 noundef %.031, ptr noundef nonnull %76) #13
  br label %sema_analyse_expr.exit.thread

78:                                               ; preds = %67
  %.not36 = icmp eq ptr %2, null
  %.phi.trans.insert = getelementptr inbounds i8, ptr %5, i64 8
  %.pre = load i64, ptr %.phi.trans.insert, align 8
  br i1 %.not36, label %._crit_edge, label %79

79:                                               ; preds = %78
  %80 = trunc i64 %.pre to i32
  store i32 %80, ptr %2, align 4
  br label %._crit_edge

._crit_edge:                                      ; preds = %78, %79
  %81 = load ptr, ptr %7, align 8
  %82 = getelementptr inbounds ptr, ptr %81, i64 %.pre
  br label %sema_analyse_expr.exit.thread

sema_analyse_expr.exit.thread:                    ; preds = %22, %27, %sema_analyse_expr_lvalue.exit, %72, %73, %63, %64, %56, %57, %47, %48, %sema_analyse_expr.exit, %._crit_edge
  %.032.in = phi ptr [ %82, %._crit_edge ], [ @poisoned_expr, %sema_analyse_expr.exit ], [ @poisoned_expr, %48 ], [ @poisoned_expr, %47 ], [ @poisoned_expr, %57 ], [ @poisoned_expr, %56 ], [ @poisoned_expr, %64 ], [ @poisoned_expr, %63 ], [ @poisoned_expr, %73 ], [ @poisoned_expr, %72 ], [ @poisoned_expr, %sema_analyse_expr_lvalue.exit ], [ @poisoned_expr, %27 ], [ @poisoned_expr, %22 ]
  %.032 = load ptr, ptr %.032.in, align 8
  ret ptr %.032
}